target datalayout = "e-m:e-p270:32:32-p271:32:32-p272:64:64-i64:64-i128:128-f80:128-n8:16:32:64-S128"
target triple = "x86_64-pc-linux-gnu"

%"struct.std::thread::_State" = type { ptr }
%"struct.std::thread::_State_impl.182" = type { %"struct.std::thread::_State", %"struct.std::thread::_Invoker.183" }
%"struct.std::thread::_Invoker.183" = type { %"class.std::tuple.184" }
%"class.std::tuple.184" = type { %"struct.std::_Tuple_impl.185" }
%"struct.std::_Tuple_impl.185" = type { %"struct.std::_Tuple_impl.186", %"struct.std::_Head_base.188" }
%"struct.std::_Tuple_impl.186" = type { %"struct.std::_Head_base.187" }
%"struct.std::_Head_base.187" = type { ptr }
%"struct.std::_Head_base.188" = type { { i64, i64 } }

; Function Attrs: mustprogress nounwind uwtable
define internal noundef nonnull align 8 dereferenceable(8) ptr @"_ZNSt10_Head_baseILm1EPNSt13__future_base17_Async_state_implINSt6thread8_InvokerISt5tupleIJZN7xgboost10collective12RabitTracker3RunEvE3$_1EEEENS6_6ResultEEELb0EE7_M_headERSE_"(ptr noundef nonnull align 8 dereferenceable(8) %0) #5 align 2 {
  %2 = alloca ptr, align 8
  store ptr %0, ptr %2, align 8, !tbaa !1057
  %3 = load ptr, ptr %2, align 8, !tbaa !1057
  %4 = getelementptr inbounds nuw %"struct.std::_Head_base.187", ptr %3, i32 0, i32 0
  ret ptr %4
}

; Function Attrs: mustprogress nounwind uwtable
define internal noundef nonnull align 8 dereferenceable(16) ptr @"_ZNSt10_Head_baseILm0EMNSt13__future_base17_Async_state_implINSt6thread8_InvokerISt5tupleIJZN7xgboost10collective12RabitTracker3RunEvE3$_1EEEENS6_6ResultEEEFvvELb0EE7_M_headERSF_"(ptr noundef nonnull align 8 dereferenceable(16) %0) #5 align 2 {
  %2 = alloca ptr, align 8
  store ptr %0, ptr %2, align 8, !tbaa !1053
  %3 = load ptr, ptr %2, align 8, !tbaa !1053
  %4 = getelementptr inbounds nuw %"struct.std::_Head_base.188", ptr %3, i32 0, i32 0
  ret ptr %4
}

; Function Attrs: mustprogress nounwind uwtable
define internal noundef nonnull align 8 dereferenceable(8) ptr @"_ZNSt11_Tuple_implILm1EJPNSt13__future_base17_Async_state_implINSt6thread8_InvokerISt5tupleIJZN7xgboost10collective12RabitTracker3RunEvE3$_1EEEENS6_6ResultEEEEE7_M_headERSE_"(ptr noundef nonnull align 8 dereferenceable(8) %0) #5 align 2 {
  %2 = alloca ptr, align 8
  store ptr %0, ptr %2, align 8, !tbaa !1051
  %3 = load ptr, ptr %2, align 8, !tbaa !1051
  %4 = call noundef nonnull align 8 dereferenceable(8) ptr @"_ZNSt10_Head_baseILm1EPNSt13__future_base17_Async_state_implINSt6thread8_InvokerISt5tupleIJZN7xgboost10collective12RabitTracker3RunEvE3$_1EEEENS6_6ResultEEELb0EE7_M_headERSE_"(ptr noundef nonnull align 8 dereferenceable(8) %3) #3
  ret ptr %4
}

; Function Attrs: mustprogress nounwind uwtable
define internal noundef nonnull align 8 dereferenceable(16) ptr @"_ZNSt11_Tuple_implILm0EJMNSt13__future_base17_Async_state_implINSt6thread8_InvokerISt5tupleIJZN7xgboost10collective12RabitTracker3RunEvE3$_1EEEENS6_6ResultEEEFvvEPSC_EE7_M_headERSG_"(ptr noundef nonnull align 8 dereferenceable(24) %0) #5 align 2 {
  %2 = alloca ptr, align 8
  store ptr %0, ptr %2, align 8, !tbaa !1049
  %3 = load ptr, ptr %2, align 8, !tbaa !1049
  %4 = getelementptr inbounds i8, ptr %3, i64 8
  %5 = call noundef nonnull align 8 dereferenceable(16) ptr @"_ZNSt10_Head_baseILm0EMNSt13__future_base17_Async_state_implINSt6thread8_InvokerISt5tupleIJZN7xgboost10collective12RabitTracker3RunEvE3$_1EEEENS6_6ResultEEEFvvELb0EE7_M_headERSF_"(ptr noundef nonnull align 8 dereferenceable(16) %4) #3
  ret ptr %5
}

; Function Attrs: mustprogress uwtable
define internal void @"_ZSt13__invoke_implIvMNSt13__future_base17_Async_state_implINSt6thread8_InvokerISt5tupleIJZN7xgboost10collective12RabitTracker3RunEvE3$_1EEEENS6_6ResultEEEFvvEPSC_JEET_St21__invoke_memfun_derefOT0_OT1_DpOT2_"(ptr noundef nonnull align 8 dereferenceable(16) %0, ptr noundef nonnull align 8 dereferenceable(8) %1) #4 {
  %3 = alloca ptr, align 8
  %4 = alloca ptr, align 8
  store ptr %0, ptr %3, align 8, !tbaa !120
  store ptr %1, ptr %4, align 8, !tbaa !717
  %5 = load ptr, ptr %4, align 8, !tbaa !717
  %6 = load ptr, ptr %5, align 8, !tbaa !723
  %7 = load ptr, ptr %3, align 8, !tbaa !120
  %8 = load { i64, i64 }, ptr %7, align 8, !tbaa !216
  %9 = extractvalue { i64, i64 } %8, 1
  %10 = getelementptr inbounds i8, ptr %6, i64 %9
  %11 = extractvalue { i64, i64 } %8, 0
  %12 = and i64 %11, 1
  %13 = icmp ne i64 %12, 0
  br i1 %13, label %14, label %19

14:                                               ; preds = %2
  %15 = load ptr, ptr %10, align 8, !tbaa !10
  %16 = sub i64 %11, 1
  %17 = getelementptr i8, ptr %15, i64 %16, !nosanitize !44
  %18 = load ptr, ptr %17, align 8, !nosanitize !44
  br label %21

19:                                               ; preds = %2
  %20 = inttoptr i64 %11 to ptr
  br label %21

21:                                               ; preds = %19, %14
  %22 = phi ptr [ %18, %14 ], [ %20, %19 ]
  call void %22(ptr noundef nonnull align 8 dereferenceable(96) %10)
  ret void
}

; Function Attrs: mustprogress nounwind uwtable
define internal noundef nonnull align 8 dereferenceable(8) ptr @"_ZSt12__get_helperILm1EPNSt13__future_base17_Async_state_implINSt6thread8_InvokerISt5tupleIJZN7xgboost10collective12RabitTracker3RunEvE3$_1EEEENS6_6ResultEEEJEERT0_RSt11_Tuple_implIXT_EJSE_DpT1_EE"(ptr noundef nonnull align 8 dereferenceable(8) %0) #5 {
  %2 = alloca ptr, align 8
  store ptr %0, ptr %2, align 8, !tbaa !1051
  %3 = load ptr, ptr %2, align 8, !tbaa !1051
  %4 = call noundef nonnull align 8 dereferenceable(8) ptr @"_ZNSt11_Tuple_implILm1EJPNSt13__future_base17_Async_state_implINSt6thread8_InvokerISt5tupleIJZN7xgboost10collective12RabitTracker3RunEvE3$_1EEEENS6_6ResultEEEEE7_M_headERSE_"(ptr noundef nonnull align 8 dereferenceable(8) %3) #3
  ret ptr %4
}

; Function Attrs: mustprogress nounwind uwtable
define internal noundef nonnull align 8 dereferenceable(16) ptr @"_ZSt12__get_helperILm0EMNSt13__future_base17_Async_state_implINSt6thread8_InvokerISt5tupleIJZN7xgboost10collective12RabitTracker3RunEvE3$_1EEEENS6_6ResultEEEFvvEJPSC_EERT0_RSt11_Tuple_implIXT_EJSG_DpT1_EE"(ptr noundef nonnull align 8 dereferenceable(24) %0) #5 {
  %2 = alloca ptr, align 8
  store ptr %0, ptr %2, align 8, !tbaa !1049
  %3 = load ptr, ptr %2, align 8, !tbaa !1049
  %4 = call noundef nonnull align 8 dereferenceable(16) ptr @"_ZNSt11_Tuple_implILm0EJMNSt13__future_base17_Async_state_implINSt6thread8_InvokerISt5tupleIJZN7xgboost10collective12RabitTracker3RunEvE3$_1EEEENS6_6ResultEEEFvvEPSC_EE7_M_headERSG_"(ptr noundef nonnull align 8 dereferenceable(24) %3) #3
  ret ptr %4
}

; Function Attrs: mustprogress uwtable
define internal void @"_ZSt8__invokeIMNSt13__future_base17_Async_state_implINSt6thread8_InvokerISt5tupleIJZN7xgboost10collective12RabitTracker3RunEvE3$_1EEEENS6_6ResultEEEFvvEJPSC_EENSt15__invoke_resultIT_JDpT0_EE4typeEOSH_DpOSI_"(ptr noundef nonnull align 8 dereferenceable(16) %0, ptr noundef nonnull align 8 dereferenceable(8) %1) #4 {
  %3 = alloca ptr, align 8
  %4 = alloca ptr, align 8
  store ptr %0, ptr %3, align 8, !tbaa !120
  store ptr %1, ptr %4, align 8, !tbaa !717
  %5 = load ptr, ptr %3, align 8, !tbaa !120
  %6 = load ptr, ptr %4, align 8, !tbaa !717
  call void @"_ZSt13__invoke_implIvMNSt13__future_base17_Async_state_implINSt6thread8_InvokerISt5tupleIJZN7xgboost10collective12RabitTracker3RunEvE3$_1EEEENS6_6ResultEEEFvvEPSC_JEET_St21__invoke_memfun_derefOT0_OT1_DpOT2_"(ptr noundef nonnull align 8 dereferenceable(16) %5, ptr noundef nonnull align 8 dereferenceable(8) %6)
  ret void
}

; Function Attrs: mustprogress nounwind uwtable
define internal noundef nonnull align 8 dereferenceable(8) ptr @"_ZSt3getILm1EJMNSt13__future_base17_Async_state_implINSt6thread8_InvokerISt5tupleIJZN7xgboost10collective12RabitTracker3RunEvE3$_1EEEENS6_6ResultEEEFvvEPSC_EEONSt13tuple_elementIXT_ES4_IJDpT0_EEE4typeEOSJ_"(ptr noundef nonnull align 8 dereferenceable(24) %0) #5 {
  %2 = alloca ptr, align 8
  store ptr %0, ptr %2, align 8, !tbaa !1047
  %3 = load ptr, ptr %2, align 8, !tbaa !1047
  %4 = call noundef nonnull align 8 dereferenceable(8) ptr @"_ZSt12__get_helperILm1EPNSt13__future_base17_Async_state_implINSt6thread8_InvokerISt5tupleIJZN7xgboost10collective12RabitTracker3RunEvE3$_1EEEENS6_6ResultEEEJEERT0_RSt11_Tuple_implIXT_EJSE_DpT1_EE"(ptr noundef nonnull align 8 dereferenceable(8) %3) #3
  ret ptr %4
}

; Function Attrs: mustprogress nounwind uwtable
define internal noundef nonnull align 8 dereferenceable(16) ptr @"_ZSt3getILm0EJMNSt13__future_base17_Async_state_implINSt6thread8_InvokerISt5tupleIJZN7xgboost10collective12RabitTracker3RunEvE3$_1EEEENS6_6ResultEEEFvvEPSC_EEONSt13tuple_elementIXT_ES4_IJDpT0_EEE4typeEOSJ_"(ptr noundef nonnull align 8 dereferenceable(24) %0) #5 {
  %2 = alloca ptr, align 8
  store ptr %0, ptr %2, align 8, !tbaa !1047
  %3 = load ptr, ptr %2, align 8, !tbaa !1047
  %4 = call noundef nonnull align 8 dereferenceable(16) ptr @"_ZSt12__get_helperILm0EMNSt13__future_base17_Async_state_implINSt6thread8_InvokerISt5tupleIJZN7xgboost10collective12RabitTracker3RunEvE3$_1EEEENS6_6ResultEEEFvvEJPSC_EERT0_RSt11_Tuple_implIXT_EJSG_DpT1_EE"(ptr noundef nonnull align 8 dereferenceable(24) %3) #3
  ret ptr %4
}

; Function Attrs: mustprogress uwtable
define internal void @"_ZNSt6thread8_InvokerISt5tupleIJMNSt13__future_base17_Async_state_implINS0_IS1_IJZN7xgboost10collective12RabitTracker3RunEvE3$_1EEEENS5_6ResultEEEFvvEPSB_EEE9_M_invokeIJLm0ELm1EEEEvSt12_Index_tupleIJXspT_EEE"(ptr noundef nonnull align 8 dereferenceable(24) %0) #4 align 2 {
  %2 = alloca ptr, align 8
  store ptr %0, ptr %2, align 8, !tbaa !1045
  %3 = load ptr, ptr %2, align 8
  %4 = getelementptr inbounds nuw %"struct.std::thread::_Invoker.183", ptr %3, i32 0, i32 0
  %5 = call noundef nonnull align 8 dereferenceable(16) ptr @"_ZSt3getILm0EJMNSt13__future_base17_Async_state_implINSt6thread8_InvokerISt5tupleIJZN7xgboost10collective12RabitTracker3RunEvE3$_1EEEENS6_6ResultEEEFvvEPSC_EEONSt13tuple_elementIXT_ES4_IJDpT0_EEE4typeEOSJ_"(ptr noundef nonnull align 8 dereferenceable(24) %4) #3
  %6 = getelementptr inbounds nuw %"struct.std::thread::_Invoker.183", ptr %3, i32 0, i32 0
  %7 = call noundef nonnull align 8 dereferenceable(8) ptr @"_ZSt3getILm1EJMNSt13__future_base17_Async_state_implINSt6thread8_InvokerISt5tupleIJZN7xgboost10collective12RabitTracker3RunEvE3$_1EEEENS6_6ResultEEEFvvEPSC_EEONSt13tuple_elementIXT_ES4_IJDpT0_EEE4typeEOSJ_"(ptr noundef nonnull align 8 dereferenceable(24) %6) #3
  call void @"_ZSt8__invokeIMNSt13__future_base17_Async_state_implINSt6thread8_InvokerISt5tupleIJZN7xgboost10collective12RabitTracker3RunEvE3$_1EEEENS6_6ResultEEEFvvEJPSC_EENSt15__invoke_resultIT_JDpT0_EE4typeEOSH_DpOSI_"(ptr noundef nonnull align 8 dereferenceable(16) %5, ptr noundef nonnull align 8 dereferenceable(8) %7)
  ret void
}

; Function Attrs: mustprogress uwtable
define internal void @"_ZNSt6thread8_InvokerISt5tupleIJMNSt13__future_base17_Async_state_implINS0_IS1_IJZN7xgboost10collective12RabitTracker3RunEvE3$_1EEEENS5_6ResultEEEFvvEPSB_EEEclEv"(ptr noundef nonnull align 8 dereferenceable(24) %0) #4 align 2 {
  %2 = alloca ptr, align 8
  store ptr %0, ptr %2, align 8, !tbaa !1045
  %3 = load ptr, ptr %2, align 8
  call void @"_ZNSt6thread8_InvokerISt5tupleIJMNSt13__future_base17_Async_state_implINS0_IS1_IJZN7xgboost10collective12RabitTracker3RunEvE3$_1EEEENS5_6ResultEEEFvvEPSB_EEE9_M_invokeIJLm0ELm1EEEEvSt12_Index_tupleIJXspT_EEE"(ptr noundef nonnull align 8 dereferenceable(24) %3)
  ret void
}

; Function Attrs: mustprogress uwtable
define internal void @"_ZNSt6thread11_State_implINS_8_InvokerISt5tupleIJMNSt13__future_base17_Async_state_implINS1_IS2_IJZN7xgboost10collective12RabitTracker3RunEvE3$_1EEEENS6_6ResultEEEFvvEPSC_EEEEE6_M_runEv"(ptr noundef nonnull align 8 dereferenceable(32) %0) unnamed_addr #4 align 2 {
  %2 = alloca ptr, align 8
  store ptr %0, ptr %2, align 8, !tbaa !1043
  %3 = load ptr, ptr %2, align 8
  %4 = getelementptr inbounds nuw %"struct.std::thread::_State_impl.182", ptr %3, i32 0, i32 1
  call void @"_ZNSt6thread8_InvokerISt5tupleIJMNSt13__future_base17_Async_state_implINS0_IS1_IJZN7xgboost10collective12RabitTracker3RunEvE3$_1EEEENS5_6ResultEEEFvvEPSB_EEEclEv"(ptr noundef nonnull align 8 dereferenceable(24) %4)
  ret void
}