; Function Attrs: mustprogress uwtable
define internal void @"_ZNSt6thread11_State_implINS_8_InvokerISt5tupleIJMNSt13__future_base17_Async_state_implINS1_IS2_IJZN7xgboost10collective12RabitTracker3RunEvE3$_1EEEENS6_6ResultEEEFvvEPSC_EEEEE6_M_runEv"(ptr noundef nonnull readonly align 8 captures(none) dereferenceable(32) %0) unnamed_addr #3 align 2 {
  %2 = getelementptr inbounds nuw i8, ptr %0, i64 8
  %3 = getelementptr inbounds nuw i8, ptr %0, i64 16
  %.val.i.i = load i64, ptr %3, align 8, !tbaa !32
  %4 = getelementptr inbounds nuw i8, ptr %0, i64 24
  %.val1.i.i = load i64, ptr %4, align 8, !tbaa !32
  %.val2.i.i = load ptr, ptr %2, align 8, !tbaa !1020
  %5 = getelementptr inbounds i8, ptr %.val2.i.i, i64 %.val1.i.i
  %6 = and i64 %.val.i.i, 1
  %.not.i.i.i.i = icmp eq i64 %6, 0
  br i1 %.not.i.i.i.i, label %12, label %7

7:                                                ; preds = %1
  %8 = load ptr, ptr %5, align 8, !tbaa !3
  %9 = getelementptr i8, ptr %8, i64 %.val.i.i
  %10 = getelementptr i8, ptr %9, i64 -1
  %11 = load ptr, ptr %10, align 8, !nosanitize !277
  br label %"_ZNSt6thread8_InvokerISt5tupleIJMNSt13__future_base17_Async_state_implINS0_IS1_IJZN7xgboost10collective12RabitTracker3RunEvE3$_1EEEENS5_6ResultEEEFvvEPSB_EEEclEv.exit"

12:                                               ; preds = %1
  %13 = inttoptr i64 %.val.i.i to ptr
  br label %"_ZNSt6thread8_InvokerISt5tupleIJMNSt13__future_base17_Async_state_implINS0_IS1_IJZN7xgboost10collective12RabitTracker3RunEvE3$_1EEEENS5_6ResultEEEFvvEPSB_EEEclEv.exit"

"_ZNSt6thread8_InvokerISt5tupleIJMNSt13__future_base17_Async_state_implINS0_IS1_IJZN7xgboost10collective12RabitTracker3RunEvE3$_1EEEENS5_6ResultEEEFvvEPSB_EEEclEv.exit": ; preds = %7, %12
  %14 = phi ptr [ %11, %7 ], [ %13, %12 ]
  tail call void %14(ptr noundef nonnull align 8 dereferenceable(96) %5)
  ret void
}